((lp1
I1842
aI1610
aI1932
aI1360
aI1443
aI1861
aI1813
aI1664
aI393
aI1833
aI1522
aI244
aI892
aI217
aI1846
aI1450
aI2015
aI1715
aI1186
aI429
aI681
aI308
aI1214
aI1173
aI1187
aI867
aI1901
aI1067
aI47
aI1583
aI1920
aI1968
aI419
aI981
aI8
aI1911
aI1172
aI317
aI1494
aI1276
aI206
aI1439
aI842
aI530
aI729
aI2009
aI1605
aI1543
aI764
aI845
aI303
aI492
aI502
aI1693
aI581
aI1776
aI508
aI2005
aI1673
aI541
aI992
aI1414
aI536
aI294
aI247
aI647
aI1389
aI322
aI1401
aI16
aI418
aI1503
aI623
aI658
aI573
aI718
aI223
aI1428
aI1580
aI654
aI299
aI1704
aI1840
aI575
aI1440
aI1819
aI802
aI1927
aI1053
aI1525
aI443
aI1858
aI422
aI1609
aI684
aI1964
aI1081
aI1
aI1779
aI338
aI345
aI1471
aI21
aI118
aI485
aI1301
aI131
aI1619
aI953
aI1013
aI348
aI1206
aI249
aI32
aI287
aI1559
aI946
aI1023
aI232
aI84
aI1312
aI870
aI1734
aI1527
aI1432
aI994
aI2010
aI1859
aI533
aI1710
aI22
aI1744
aI1613
aI448
aI708
aI113
aI1751
aI1721
aI850
aI6
aI1755
aI145
aI997
aI893
aI1165
aI276
aI1242
aI1295
aI106
aI567
aI711
aI1384
aI471
aI742
aI1112
aI427
aI1909
aI611
aI1098
aI1866
aI316
aI1523
aI1102
aI1264
aI1072
aI1094
aI1729
aI117
aI1461
aI638
aI1064
aI331
aI689
aI1566
aI716
aI1353
aI293
aI876
aI513
aI1451
aI227
aI1246
aI1188
aI971
aI613
aI1534
aI765
aI229
aI1159
aI1548
aI1821
aI383
aI948
aI243
aI1260
aI1711
aI122
aI1584
aI1239
aI67
aI152
aI1391
aI545
aI176
aI1504
aI59
aI558
aI905
aI1926
aI1651
aI861
aI371
aI1608
aI832
aI304
aI1746
aI1754
aI717
aI735
aI130
aI484
aI1050
aI800
aI436
aI435
aI102
aI1109
aI1232
aI442
aI1616
aI1184
aI1630
aI584
aI1836
aI1373
aI219
aI514
aI1367
aI760
aI302
aI1728
aI1266
aI319
aI1256
aI1314
aI167
aI1947
aI1230
aI1624
aI1768
aI360
aI1571
aI551
aI591
aI2
aI2007
aI970
aI1509
aI1396
aI1097
aI700
aI60
aI600
aI1897
aI776
aI464
aI1458
aI1634
aI1332
aI1803
aI10
aI1628
aI935
aI163
aI847
aI281
aI1925
aI269
aI1318
aI1713
aI1730
aI1111
aI819
aI1919
aI821
aI187
aI789
aI1533
aI1423
aI1119
aI940
aI1501
aI1075
aI428
aI1143
aI1682
aI157
aI1499
aI252
aI1044
aI942
aI1940
aI334
aI365
aI312
aI253
aI71
aI1496
aI1963
aI1420
aI1076
aI1879
aI26
aI602
aI1368
aI527
aI1457
aI1883
aI1935
aI871
aI1820
aI518
aI1484
aI19
aI1151
aI63
aI1640
aI1815
aI863
aI468
aI1900
aI1625
aI1594
aI30
aI193
aI556
aI1735
aI404
aI1777
aI451
aI1669
aI1303
aI1524
aI951
aI1113
aI1285
aI240
aI1399
aI1537
aI177
aI1032
aI1374
aI1309
aI169
aI1611
aI1140
aI890
aI280
aI1244
aI1723
aI715
aI97
aI1520
aI853
aI674
aI1822
aI1585
aI1736
aI1066
aI347
aI984
aI386
aI212
aI162
aI110
aI1663
aI1546
aI78
aI1958
aI1891
aI174
aI528
aI1030
aI1695
aI1470
aI808
aI1720
aI1185
aI1171
aI582
aI401
aI55
aI1200
aI1304
aI1934
aI1036
aI1999
aI1453
aI1302
aI1924
aI268
aI1603
aI1612
aI1028
aI372
aI1756
aI585
aI175
aI1197
aI1800
aI771
aI973
aI636
aI1340
aI61
aI1737
aI278
aI1550
aI1716
aI929
aI1060
aI1586
aI722
aI1712
aI1466
aI1867
aI1738
aI898
aI1017
aI1946
aI1413
aI1263
aI828
aI975
aI885
aI597
aI120
aI752
aI1090
aI1078
aI220
aI965
aI432
aI624
aI795
aI2013
aI931
aI494
aI822
aI412
aI1857
aI709
aI48
aI1667
aI179
aI944
aI696
aI201
aI472
aI1209
aI1658
aI947
aI786
aI653
aI1994
aI1435
aI403
aI395
aI745
aI829
aI967
aI622
aI1590
aI1103
aI1267
aI141
aI978
aI1560
aI1468
aI1430
aI1759
aI1814
aI644
aI1474
aI41
aI96
aI382
aI1733
aI830
aI1306
aI1521
aI1352
aI1894
aI211
aI537
aI598
aI1164
aI1853
aI504
aI1427
aI1223
aI121
aI136
aI1405
aI1724
aI1743
aI794
aI1131
aI1371
aI469
aI1827
aI1133
aI1351
aI1225
aI101
aI156
aI668
aI1806
aI416
aI1070
aI649
aI774
aI349
aI701
aI1130
aI974
aI1516
aI1144
aI301
aI924
aI1433
aI1217
aI790
aI1824
aI352
aI1795
aI172
aI178
aI376
aI140
aI43
aI1787
aI2004
aI69
aI1033
aI1208
aI440
aI1192
aI712
aI1514
aI1706
aI595
aI477
aI1745
aI1365
aI1106
aI14
aI1766
aI1770
aI1434
aI1068
aI3
aI1406
aI1555
aI884
aI1572
aI1739
aI726
aI1772
aI1034
aI1538
aI588
aI983
aI1174
aI1631
aI904
aI1193
aI1021
aI1104
aI1286
aI1183
aI560
aI310
aI1784
aI673
aI566
aI1421
aI1888
aI250
aI610
aI1549
aI297
aI1378
aI1271
aI1404
aI798
aI1981
aI1299
aI389
aI2012
aI1953
aI213
aI833
aI1615
aI1774
aI1565
aI1791
aI479
aI423
aI1110
aI1825
aI609
aI236
aI1567
aI313
aI901
aI453
aI732
aI125
aI756
aI29
aI1123
aI1464
aI1760
aI1995
aI1839
aI1278
aI543
aI506
aI869
aI834
aI751
aI667
aI1849
aI1493
aI327
aI913
aI1697
aI837
aI457
aI694
aI770
aI964
aI426
aI1227
aI1670
aI1851
aI868
aI1709
aI740
aI1741
aI1986
aI617
aI98
aI621
aI679
aI100
aI886
aI332
aI666
aI378
aI44
aI1022
aI1038
aI1008
aI1181
aI661
aI932
aI1046
aI369
aI1945
aI324
aI496
aI486
aI1804
aI1992
aI1283
aI697
aI1505
aI342
aI1562
aI407
aI134
aI1684
aI1687
aI1281
aI1551
aI7
aI1655
aI1722
aI641
aI780
aI402
aI1646
aI552
aI1247
aI228
aI1854
aI1383
aI1871
aI272
aI221
aI251
aI532
aI517
aI706
aI1841
aI1063
aI1153
aI553
aI1786
aI282
aI1579
aI1191
aI1626
aI95
aI124
aI1040
aI1346
aI1775
aI762
aI27
aI1620
aI911
aI793
aI1134
aI1980
aI840
aI562
aI295
aI86
aI1699
aI1750
aI1057
aI36
aI1502
aI359
aI170
aI1355
aI466
aI171
aI318
aI866
aI920
aI725
aI805
aI446
aI720
aI150
aI1959
aI1666
aI627
aI655
aI1163
aI1175
aI677
aI190
aI1343
aI1991
aI210
aI330
aI1307
aI877
aI384
aI493
aI1898
aI1045
aI0
aI415
aI763
aI20
aI1507
aI111
aI139
aI323
aI1347
aI1570
aI279
aI203
aI94
aI387
aI672
aI326
aI105
aI65
aI1138
aI635
aI909
aI1019
aI370
aI769
aI49
aI391
aI388
aI1376
aI1606
aI1886
aI927
aI542
aI1974
aI1990
aI1674
aI298
aI434
aI1115
aI1660
aI1122
aI143
aI1424
aI1080
aI119
aI1727
aI1288
aI934
aI129
aI1199
aI37
aI1170
aI1329
aI1408
aI1541
aI1837
aI1216
aI879
aI1916
aI520
aI1220
aI633
aI1835
aI1740
aI565
aI1792
aI92
aI570
aI409
aI772
aI1167
aI757
aI147
aI1341
aI1656
aI1568
aI737
aI1412
aI215
aI987
aI288
aI784
aI685
aI747
aI449
aI1757
aI1012
aI79
aI686
aI1675
aI1872
aI1904
aI28
aI458
aI350
aI1117
aI1718
aI72
aI1128
aI1629
aI943
aI82
aI2001
aI1545
aI1333
aI1124
aI1475
aI1976
aI2008
aI1211
aI1923
aI999
aI844
aI1862
aI1600
aI296
aI1195
aI515
aI1887
aI881
aI420
aI1702
aI487
aI1265
aI104
aI995
aI1982
aI381
aI1636
aI690
aI180
aI563
aI1031
aI366
aI1282
aI306
aI1597
aI1177
aI204
aI966
aI1762
aI1293
aI1310
aI103
aI87
aI903
aI1870
aI1780
aI1043
aI941
aI160
aI1939
aI874
aI1454
aI663
aI218
aI1719
aI743
aI917
aI15
aI637
aI1645
aI592
aI1298
aI1491
aI1154
aI511
aI1084
aI817
aI731
aI1984
aI880
aI1895
aI1581
aI590
aI1235
aI1771
aI173
aI1602
aI1041
aI81
aI1938
aI1789
aI1409
aI181
aI1844
aI1051
aI1679
aI603
aI1392
aI410
aI463
aI1648
aI851
aI285
aI806
aI1272
aI1659
aI1714
aI1035
aI431
aI1942
aI1300
aI912
aI704
aI969
aI1882
aI923
aI1885
aI1949
aI1402
aI773
aI182
aI680
aI1152
aI189
aI1176
aI1950
aI447
aI1444
aI107
aI1593
aI1403
aI1638
aI11
aI1877
aI1393
aI792
aI461
aI535
aI23
aI1642
aI224
aI1147
aI356
aI1960
aI1438
aI1162
aI1993
aI1339
aI2006
aI632
aI957
aI1643
aI1933
aI1971
aI1397
aI665
aI693
aI1049
aI1095
aI128
aI205
aI669
aI744
aI1808
aI748
aI1037
aI1577
aI1275
aI1083
aI362
aI1155
aI155
aI1782
aI333
aI1783
aI791
aI291
aI248
aI132
aI986
aI534
aI988
aI490
aI1018
aI1607
aI1315
aI73
aI1114
aI1761
aI1215
aI629
aI594
aI1802
aI887
aI727
aI1955
aI1336
aI766
aI1707
aI505
aI721
aI1639
aI1869
aI799
aI230
aI1875
aI1818
aI1088
aI1957
aI1059
aI273
aI328
aI292
aI631
aI723
aI1213
aI1807
aI950
aI702
aI1865
aI1829
aI843
aI257
aI1532
aI233
aI158
aI470
aI1878
aI1969
aI473
aI1876
aI74
aI1338
aI1912
aI989
aI1334
aI267
aI270
aI754
aI1794
aI1240
aI165
aI1126
aI1252
aI998
aI265
aI1905
aI1456
aI478
aI889
aI1899
aI1069
aI245
aI1604
aI956
aI1987
aI1258
aI1253
aI691
aI1087
aI1317
aI1296
aI1526
aI531
aI1349
aI897
aI1686
aI815
aI1071
aI1495
aI788
aI1621
aI1483
aI1805
aI614
aI307
aI1269
aI266
aI66
aI1089
aI53
aI818
aI1662
aI675
aI364
aI321
aI960
aI759
aI1006
aI1535
aI1508
aI1366
aI521
aI862
aI1120
aI1416
aI1650
aI1342
aI1465
aI286
aI599
aI1344
aI1536
aI1489
aI500
aI1498
aI1324
aI260
aI1830
aI1547
aI1937
aI164
aI379
aI1890
aI1048
aI417
aI578
aI699
aI959
aI608
aI1954
aI1831
aI855
aI1467
aI421
aI12
aI807
aI1047
aI550
aI580
aI561
aI411
aI456
aI1205
aI1781
aI1460
aI1224
aI314
aI1161
aI1132
aI1517
aI1180
aI1091
aI1277
aI1689
aI1100
aI1052
aI99
aI183
aI1816
aI797
aI714
aI1788
aI512
aI196
aI1311
aI1677
aI662
aI804
aI659
aI996
aI1135
aI259
aI529
aI615
aI373
aI188
aI329
aI1379
aI586
aI1236
aI1092
aI977
aI1348
aI1845
aI642
aI46
aI1617
aI1129
aI377
aI399
aI1700
aI1848
aI1121
aI192
aI1357
aI1141
aI583
aI40
aI921
aI539
aI894
aI56
aI1387
aI452
aI1422
aI1511
aI51
aI351
aI1649
aI311
aI1701
aI873
aI1004
aI1274
aI320
aI137
aI1085
aI1513
aI126
aI135
aI116
aI616
aI860
aI1372
aI34
aI1448
aI698
aI1796
aI1834
aI462
aI17
aI481
aI1168
aI823
aI660
aI1633
aI1519
aI390
aI839
aI346
aI488
aI368
aI1182
aI1417
aI546
aI1190
aI1382
aI1201
aI88
aI1093
aI858
aI857
aI1930
aI1691
aI1390
aI576
aI1056
aI895
aI1488
aI1863
aI151
aI782
aI2014
aI1169
aI596
aI783
aI1486
aI1657
aI899
aI972
aI1847
aI1860
aI225
aI593
aI1690
aI1447
aI976
aI1832
aI1810
aI1198
aI848
aI1540
aI52
aI1637
aI1903
aI1459
aI671
aI1398
aI325
aI963
aI474
aI1492
aI237
aI385
aI1564
aI1970
aI1077
aI1528
aI1268
aI392
aI872
aI1485
aI83
aI1956
aI24
aI1160
aI779
aI1556
aI1681
aI1014
aI2003
aI955
aI1589
aI1142
aI1855
aI985
aI958
aI758
aI112
aI1290
aI1231
aI1385
aI476
aI480
aI1065
aI1096
aI1145
aI785
aI1251
aI625
aI498
aI516
aI1913
aI1592
aI1703
aI375
aI425
aI186
aI1108
aI1226
aI1337
aI1234
aI495
aI640
aI589
aI555
aI670
aI1747
aI1125
aI1480
aI768
aI1473
aI949
aI394
aI938
aI222
aI1989
aI859
aI1419
aI577
aI1321
aI315
aI216
aI1998
aI1680
aI1578
aI643
aI1292
aI1107
aI1764
aI242
aI263
aI1462
aI1158
aI497
aI1178
aI1407
aI607
aI618
aI256
aI746
aI826
aI801
aI1785
aI523
aI896
aI1411
aI926
aI1426
aI1194
aI1587
aI1418
aI831
aI1652
aI1561
aI1601
aI919
aI363
aI1892
aI335
aI656
aI854
aI1678
aI1054
aI571
aI460
aI1618
aI1749
aI1325
aI1116
aI1767
aI341
aI908
aI450
aI954
aI1137
aI1455
aI1576
aI1896
aI749
aI713
aI1732
aI634
aI650
aI437
aI68
aI1377
aI1928
aI25
aI750
aI687
aI39
aI1809
aI883
aI1598
aI1010
aI161
aI91
aI1997
aI159
aI2002
aI284
aI1148
aI1445
aI1364
aI85
aI199
aI1801
aI1936
aI692
aI882
aI1790
aI1179
aI198
aI1331
aI1015
aI336
aI93
aI1441
aI1228
aI1431
aI1554
aI258
aI1279
aI1245
aI849
aI1977
aI1136
aI1477
aI1388
aI1203
aI9
aI568
aI1204
aI902
aI1918
aI1149
aI1763
aI1635
aI354
aI1118
aI813
aI398
aI838
aI1370
aI355
aI811
aI1476
aI836
aI928
aI1207
aI991
aI1798
aI852
aI1914
aI62
aI1688
aI1692
aI1773
aI1380
aI630
aI499
aI90
aI1074
aI1908
aI1778
aI1907
aI824
aI489
aI239
aI1082
aI510
aI559
aI200
aI1951
aI695
aI406
aI1596
aI796
aI76
aI1731
aI1906
aI962
aI1765
aI1793
aI1254
aI891
aI574
aI906
aI1328
aI1319
aI979
aI271
aI738
aI864
aI1221
aI604
aI916
aI648
aI1661
aI57
aI374
aI54
aI482
aI405
aI1297
aI274
aI289
aI1529
aI678
aI33
aI58
aI1553
aI1557
aI961
aI1948
aI1025
aI38
aI710
aI127
aI1797
aI1917
aI1698
aI367
aI1381
aI1000
aI1961
aI1273
aI1356
aI1330
aI1975
aI564
aI639
aI1212
aI1874
aI234
aI1400
aI441
aI914
aI290
aI925
aI1573
aI1941
aI705
aI1146
aI202
aI1685
aI1222
aI507
aI1308
aI724
aI787
aI1558
aI1026
aI1653
aI1985
aI1437
aI357
aI194
aI1512
aI138
aI414
aI1061
aI936
aI185
aI509
aI1354
aI933
aI195
aI1588
aI1752
aI1020
aI1696
aI657
aI1965
aI77
aI1614
aI1294
aI153
aI1622
aI454
aI1079
aI587
aI430
aI408
aI1386
aI1623
aI945
aI1742
aI475
aI734
aI400
aI75
aI1196
aI305
aI264
aI1361
aI875
aI1039
aI35
aI1449
aI1868
aI1850
aI238
aI1007
aI1531
aI755
aI827
aI191
aI1843
aI1922
aI45
aI835
aI255
aI254
aI778
aI1817
aI146
aI1569
aI1582
aI1099
aI1362
aI1889
aI1270
aI1823
aI1105
aI1446
aI579
aI31
aI626
aI937
aI503
aI1250
aI1029
aI1873
aI148
aI1415
aI283
aI209
aI197
aI519
aI1219
aI990
aI619
aI1983
aI993
aI1811
aI841
aI1671
aI1259
aI1487
aI952
aI1769
aI569
aI246
aI50
aI2011
aI1884
aI340
aI1725
aI1944
aI89
aI918
aI1482
aI1429
aI1058
aI524
aI1641
aI522
aI646
aI123
aI812
aI1599
aI1563
aI1683
aI628
aI703
aI761
aI114
aI207
aI1497
aI2000
aI1500
aI1676
aI1518
aI1574
aI922
aI444
aI915
aI605
aI777
aI1929
aI343
aI361
aI1943
aI1238
aI1305
aI1627
aI1902
aI226
aI1127
aI1003
aI1322
aI1668
aI652
aI214
aI1748
aI1705
aI1335
aI1320
aI1350
aI1009
aI664
aI1910
aI688
aI1345
aI397
aI1799
aI606
aI888
aI344
aI18
aI1101
aI413
aI548
aI572
aI1394
aI115
aI1255
aI1973
aI208
aI455
aI676
aI1828
aI465
aI1463
aI108
aI337
aI910
aI1237
aI1289
aI1506
aI1024
aI1369
aI1229
aI1241
aI736
aI1280
aI1042
aI1086
aI1812
aI70
aI1952
aI1694
aI80
aI262
aI540
aI900
aI1880
aI1287
aI1233
aI142
aI683
aI501
aI483
aI168
aI433
aI459
aI380
aI1996
aI1436
aI1672
aI1425
aI4
aI1931
aI1202
aI1326
aI1218
aI1515
aI300
aI1323
aI682
aI1539
aI109
aI1644
aI1257
aI775
aI1156
aI1552
aI184
aI1291
aI733
aI968
aI353
aI846
aI1358
aI396
aI261
aI1921
aI1864
aI1472
aI814
aI1726
aI1595
aI728
aI865
aI358
aI1962
aI309
aI339
aI1363
aI739
aI1005
aI1327
aI1157
aI5
aI1544
aI1027
aI1262
aI1647
aI1016
aI1575
aI1002
aI1915
aI1452
aI1316
aI544
aI1410
aI1632
aI1852
aI781
aI1708
aI719
aI878
aI525
aI730
aI554
aI424
aI149
aI1530
aI612
aI1758
aI767
aI707
aI154
aI1979
aI809
aI980
aI144
aI645
aI467
aI42
aI1881
aI1375
aI1856
aI939
aI930
aI1011
aI825
aI803
aI1166
aI1510
aI810
aI741
aI1073
aI1826
aI491
aI1062
aI1248
aI438
aI816
aI1001
aI275
aI907
aI1139
aI1591
aI601
aI1479
aI1469
aI549
aI557
aI231
aI1210
aI64
aI753
aI1313
aI1243
aI1055
aI547
aI820
aI526
aI445
aI651
aI166
aI13
aI1359
aI982
aI1150
aI1717
aI1490
aI1654
aI235
aI1978
aI620
aI439
aI1665
aI1972
aI1967
aI1542
aI1284
aI1966
aI241
aI1442
aI1395
aI1753
aI1893
aI538
aI1249
aI856
aI1838
aI1988
aI1261
aI277
aI133
aI1481
aI1478
aI1189
a(lp2
I4
aI5
a(lp3
I19
aI27
aI29
aI5
aI22
aI25
aI14
aI38
aI34
aI32
aI17
aI20
aI13
aI36
aI26
aI21
aI15
aI16
aI8
aI11
aI6
aI31
aI23
aI10
aI12
aI28
aI39
aI33
aI7
aI37
aI9
aI35
aI18
aI40
aI24
aI30
a(lp4
F0.73599999999999999
aF0.78100000000000003
aF0.73099999999999998
aF0.76200000000000001
aF0.79000000000000004
aF0.73799999999999999
aF0.72499999999999998
aF0.753
aF0.75
aF0.71399999999999997
aF0.71999999999999997
aF0.73999999999999999
aF0.72899999999999998
aF0.70599999999999996
aF0.70199999999999996
aF0.70699999999999996
aF0.74199999999999999
aF0.71499999999999997
aF0.74099999999999999
aF0.76000000000000001
aF0.755
aF0.73299999999999998
aF0.75700000000000001
aF0.749
aF0.72099999999999997
aF0.72299999999999998
aF0.751
aF0.71599999999999997
aF0.79100000000000004
aF0.74399999999999999
aF0.78300000000000003
aF0.75900000000000001
aF0.78000000000000003
aF0.70499999999999996
aF0.77200000000000002
aF0.70399999999999996
aF0.77800000000000002
aF0.70999999999999996
aF0.79600000000000004
aF0.79700000000000004
aF0.72399999999999998
aF0.748
aF0.78400000000000003
aF0.71199999999999997
aF0.77600000000000002
aF0.76700000000000002
aF0.78600000000000003
aF0.78700000000000003
aF0.70299999999999996
aF0.78500000000000003
aF0.77100000000000002
aF0.76600000000000001
aF0.71699999999999997
aF0.76900000000000002
aF0.72699999999999998
aF0.73699999999999999
aF0.76100000000000001
aF0.72199999999999998
aF0.76800000000000002
aF0.72999999999999998
aF0.78900000000000003
aF0.73199999999999998
aF0.745
aF0.72599999999999998
aF0.79400000000000004
aF0.77400000000000002
aF0.77500000000000002
aF0.75600000000000001
aF0.79800000000000004
aF0.77000000000000002
aF0.747
aF0.73399999999999999
aF0.69999999999999996
aF0.77700000000000002
aF0.73899999999999999
aF0.754
aF0.74299999999999999
aF0.73499999999999999
aF0.76400000000000001
aF0.746
aF0.77900000000000003
aF0.70799999999999996
aF0.71799999999999997
aF0.71899999999999997
aF0.70099999999999996
aF0.79500000000000004
aF0.75800000000000001
aF0.76300000000000001
aF0.71099999999999997
aF0.72799999999999998
aF0.76500000000000001
aF0.79300000000000004
aF0.79900000000000004
aF0.70899999999999996
aF0.77300000000000002
aF0.78200000000000003
aF0.71299999999999997
aF0.78800000000000003
aF0.79200000000000004
aF0.752
a(lp5
F0.77100000000000002
aF0.78700000000000003
aF0.753
aF0.77000000000000002
aF0.76100000000000001
aF0.79100000000000004
aF0.73799999999999999
aF0.75
aF0.76300000000000001
aF0.71699999999999997
aF0.77300000000000002
aF0.73099999999999998
aF0.72199999999999998
aF0.73199999999999998
aF0.752
aF0.71799999999999997
aF0.79400000000000004
aF0.76500000000000001
aF0.70799999999999996
aF0.75800000000000001
aF0.73999999999999999
aF0.77600000000000002
aF0.74099999999999999
aF0.72499999999999998
aF0.751
aF0.74399999999999999
aF0.78000000000000003
aF0.76600000000000001
aF0.71499999999999997
aF0.69999999999999996
aF0.72399999999999998
aF0.78300000000000003
aF0.72699999999999998
aF0.73499999999999999
aF0.72599999999999998
aF0.71599999999999997
aF0.72299999999999998
aF0.79900000000000004
aF0.70199999999999996
aF0.70399999999999996
aF0.73399999999999999
aF0.75700000000000001
aF0.77800000000000002
aF0.71999999999999997
aF0.77500000000000002
aF0.75900000000000001
aF0.70699999999999996
aF0.78600000000000003
aF0.754
aF0.78200000000000003
aF0.73599999999999999
aF0.77400000000000002
aF0.78900000000000003
aF0.77200000000000002
aF0.76800000000000002
aF0.78500000000000003
aF0.71099999999999997
aF0.79200000000000004
aF0.70099999999999996
aF0.76400000000000001
aF0.74299999999999999
aF0.72899999999999998
aF0.72999999999999998
aF0.79000000000000004
aF0.73299999999999998
aF0.79800000000000004
aF0.749
aF0.746
aF0.74199999999999999
aF0.78400000000000003
aF0.70599999999999996
aF0.79300000000000004
aF0.76900000000000002
aF0.77700000000000002
aF0.72099999999999997
aF0.73699999999999999
aF0.72799999999999998
aF0.70299999999999996
aF0.76200000000000001
aF0.79500000000000004
aF0.77900000000000003
aF0.76000000000000001
aF0.70899999999999996
aF0.745
aF0.70499999999999996
aF0.748
aF0.747
aF0.71299999999999997
aF0.78800000000000003
aF0.71399999999999997
aF0.79600000000000004
aF0.70999999999999996
aF0.71199999999999997
aF0.76700000000000002
aF0.75600000000000001
aF0.755
aF0.79700000000000004
aF0.78100000000000003
aF0.71899999999999997
aF0.73899999999999999
a(lp6
F2.3500000000000001
aF2.1899999999999999
aF2.0499999999999998
aF1.98
aF2.1000000000000001
aF2.1299999999999999
aF2.3599999999999999
aF1.9299999999999999
aF1.8200000000000001
aF2.4100000000000001
aF2.1699999999999999
aF2.29
aF2.0699999999999998
aF1.5
aF1.5700000000000001
aF2.46
aF1.6799999999999999
aF2.0099999999999998
aF2.4500000000000002
aF1.5600000000000001
aF1.6200000000000001
aF2.4399999999999999
aF2.4700000000000002
aF1.71
aF2.27
aF1.54
aF2.1600000000000001
aF2.3799999999999999
aF2.2599999999999998
aF2.3300000000000001
aF2.4900000000000002
aF1.8
aF1.9099999999999999
aF2.2000000000000002
aF2.3700000000000001
aF1.6699999999999999
aF2.25
aF1.9399999999999999
aF2.2999999999999998
aF1.77
aF1.6299999999999999
aF1.6899999999999999
aF1.5800000000000001
aF2.3999999999999999
aF1.5900000000000001
aF2.1499999999999999
aF2.04
aF2.2799999999999998
aF2.3399999999999999
aF1.51
aF2.0299999999999998
aF2.3900000000000001
aF2.2200000000000002
aF2.1200000000000001
aF1.6499999999999999
aF2.4199999999999999
aF1.6000000000000001
aF1.8799999999999999
aF2.3100000000000001
aF1.6100000000000001
aF1.95
aF1.78
aF1.76
aF2.0600000000000001
aF1.53
aF1.8300000000000001
aF1.6599999999999999
aF1.72
aF2.02
aF1.74
aF1.75
aF1.6399999999999999
aF1.8100000000000001
aF1.8400000000000001
aF1.8500000000000001
aF2
aF1.79
aF1.8700000000000001
aF1.52
aF1.8899999999999999
aF2.0800000000000001
aF2.1800000000000002
aF1.9199999999999999
aF2.3199999999999998
aF2.4300000000000002
aF2.48
aF2.2400000000000002
aF1.8999999999999999
aF1.73
aF1.8600000000000001
aF2.0899999999999999
aF1.97
aF1.96
aF2.1400000000000001
aF1.55
aF2.23
aF1.7
aF2.21
aF2.1099999999999999
aF1.99
a(lp7
I190
aI178
aI224
aI238
aI228
aI150
aI240
aI248
aI164
aI266
aI212
aI230
aI244
aI256
aI236
aI172
aI262
aI176
aI268
aI204
aI162
aI274
aI174
aI192
aI278
aI208
aI188
aI270
aI210
aI242
aI272
aI280
aI184
aI252
aI226
aI276
aI166
aI170
aI200
aI158
aI260
aI202
aI154
aI234
aI214
aI264
aI250
aI194
aI246
aI254
aI232
aI152
aI182
aI186
aI206
aI216
aI160
aI258
aI198
aI168
aI156
aI180
aI220
aI218
aI196
aI222
at.